target datalayout = "e-m:e-p270:32:32-p271:32:32-p272:64:64-i64:64-i128:128-f80:128-n8:16:32:64-S128"
target triple = "x86_64-pc-linux-gnu"

%struct._cms_typehandler_struct = type { i32, ptr, ptr, ptr, ptr, ptr, i32 }
%struct._cms_io_handler = type { ptr, ptr, i32, i32, [256 x i8], ptr, ptr, ptr, ptr, ptr }
%struct._cms_curve_struct = type { ptr, i32, ptr, ptr, ptr, i32, ptr }
%struct.cmsUcrBg = type { ptr, ptr, ptr }

@.str = private unnamed_addr constant [3 x i8] zeroinitializer, align 1

; Function Attrs: nounwind uwtable
define internal i32 @Type_UcrBg_Write(ptr noundef %0, ptr noundef %1, ptr noundef %2, i32 noundef %3) #0 {
  %5 = alloca i32, align 4
  %6 = alloca ptr, align 8
  %7 = alloca ptr, align 8
  %8 = alloca ptr, align 8
  %9 = alloca i32, align 4
  %10 = alloca ptr, align 8
  %11 = alloca i32, align 4
  %12 = alloca ptr, align 8
  store ptr %0, ptr %6, align 8
  store ptr %1, ptr %7, align 8
  store ptr %2, ptr %8, align 8
  store i32 %3, ptr %9, align 4
  %13 = load ptr, ptr %8, align 8
  store ptr %13, ptr %10, align 8
  %14 = load ptr, ptr %7, align 8
  %15 = load ptr, ptr %10, align 8
  %16 = getelementptr inbounds %struct.cmsUcrBg, ptr %15, i32 0, i32 0
  %17 = load ptr, ptr %16, align 8
  %18 = getelementptr inbounds %struct._cms_curve_struct, ptr %17, i32 0, i32 5
  %19 = load i32, ptr %18, align 8
  %20 = call i32 @_cmsWriteUInt32Number(ptr noundef %14, i32 noundef %19)
  %21 = icmp ne i32 %20, 0
  br i1 %21, label %23, label %22

22:                                               ; preds = %4
  store i32 0, ptr %5, align 4
  br label %97

23:                                               ; preds = %4
  %24 = load ptr, ptr %7, align 8
  %25 = load ptr, ptr %10, align 8
  %26 = getelementptr inbounds %struct.cmsUcrBg, ptr %25, i32 0, i32 0
  %27 = load ptr, ptr %26, align 8
  %28 = getelementptr inbounds %struct._cms_curve_struct, ptr %27, i32 0, i32 5
  %29 = load i32, ptr %28, align 8
  %30 = load ptr, ptr %10, align 8
  %31 = getelementptr inbounds %struct.cmsUcrBg, ptr %30, i32 0, i32 0
  %32 = load ptr, ptr %31, align 8
  %33 = getelementptr inbounds %struct._cms_curve_struct, ptr %32, i32 0, i32 6
  %34 = load ptr, ptr %33, align 8
  %35 = call i32 @_cmsWriteUInt16Array(ptr noundef %24, i32 noundef %29, ptr noundef %34)
  %36 = icmp ne i32 %35, 0
  br i1 %36, label %38, label %37

37:                                               ; preds = %23
  store i32 0, ptr %5, align 4
  br label %97

38:                                               ; preds = %23
  %39 = load ptr, ptr %7, align 8
  %40 = load ptr, ptr %10, align 8
  %41 = getelementptr inbounds %struct.cmsUcrBg, ptr %40, i32 0, i32 1
  %42 = load ptr, ptr %41, align 8
  %43 = getelementptr inbounds %struct._cms_curve_struct, ptr %42, i32 0, i32 5
  %44 = load i32, ptr %43, align 8
  %45 = call i32 @_cmsWriteUInt32Number(ptr noundef %39, i32 noundef %44)
  %46 = icmp ne i32 %45, 0
  br i1 %46, label %48, label %47

47:                                               ; preds = %38
  store i32 0, ptr %5, align 4
  br label %97

48:                                               ; preds = %38
  %49 = load ptr, ptr %7, align 8
  %50 = load ptr, ptr %10, align 8
  %51 = getelementptr inbounds %struct.cmsUcrBg, ptr %50, i32 0, i32 1
  %52 = load ptr, ptr %51, align 8
  %53 = getelementptr inbounds %struct._cms_curve_struct, ptr %52, i32 0, i32 5
  %54 = load i32, ptr %53, align 8
  %55 = load ptr, ptr %10, align 8
  %56 = getelementptr inbounds %struct.cmsUcrBg, ptr %55, i32 0, i32 1
  %57 = load ptr, ptr %56, align 8
  %58 = getelementptr inbounds %struct._cms_curve_struct, ptr %57, i32 0, i32 6
  %59 = load ptr, ptr %58, align 8
  %60 = call i32 @_cmsWriteUInt16Array(ptr noundef %49, i32 noundef %54, ptr noundef %59)
  %61 = icmp ne i32 %60, 0
  br i1 %61, label %63, label %62

62:                                               ; preds = %48
  store i32 0, ptr %5, align 4
  br label %97

63:                                               ; preds = %48
  %64 = load ptr, ptr %10, align 8
  %65 = getelementptr inbounds %struct.cmsUcrBg, ptr %64, i32 0, i32 2
  %66 = load ptr, ptr %65, align 8
  %67 = call i32 @cmsMLUgetASCII(ptr noundef %66, ptr noundef @.str, ptr noundef @.str, ptr noundef null, i32 noundef 0)
  store i32 %67, ptr %11, align 4
  %68 = load ptr, ptr %6, align 8
  %69 = getelementptr inbounds %struct._cms_typehandler_struct, ptr %68, i32 0, i32 5
  %70 = load ptr, ptr %69, align 8
  %71 = load i32, ptr %11, align 4
  %72 = call ptr @_cmsMalloc(ptr noundef %70, i32 noundef %71)
  store ptr %72, ptr %12, align 8
  %73 = load ptr, ptr %10, align 8
  %74 = getelementptr inbounds %struct.cmsUcrBg, ptr %73, i32 0, i32 2
  %75 = load ptr, ptr %74, align 8
  %76 = load ptr, ptr %12, align 8
  %77 = load i32, ptr %11, align 4
  %78 = call i32 @cmsMLUgetASCII(ptr noundef %75, ptr noundef @.str, ptr noundef @.str, ptr noundef %76, i32 noundef %77)
  %79 = load i32, ptr %11, align 4
  %80 = icmp ne i32 %78, %79
  br i1 %80, label %81, label %82

81:                                               ; preds = %63
  store i32 0, ptr %5, align 4
  br label %97

82:                                               ; preds = %63
  %83 = load ptr, ptr %7, align 8
  %84 = getelementptr inbounds %struct._cms_io_handler, ptr %83, i32 0, i32 9
  %85 = load ptr, ptr %84, align 8
  %86 = load ptr, ptr %7, align 8
  %87 = load i32, ptr %11, align 4
  %88 = load ptr, ptr %12, align 8
  %89 = call i32 %85(ptr noundef %86, i32 noundef %87, ptr noundef %88)
  %90 = icmp ne i32 %89, 0
  br i1 %90, label %92, label %91

91:                                               ; preds = %82
  store i32 0, ptr %5, align 4
  br label %97

92:                                               ; preds = %82
  %93 = load ptr, ptr %6, align 8
  %94 = getelementptr inbounds %struct._cms_typehandler_struct, ptr %93, i32 0, i32 5
  %95 = load ptr, ptr %94, align 8
  %96 = load ptr, ptr %12, align 8
  call void @_cmsFree(ptr noundef %95, ptr noundef %96)
  store i32 1, ptr %5, align 4
  br label %97

97:                                               ; preds = %92, %91, %81, %62, %47, %37, %22
  %98 = load i32, ptr %5, align 4
  ret i32 %98
}