; Function Attrs: nounwind uwtable
define internal range(i32 0, 2) i32 @Type_UcrBg_Write(ptr nocapture noundef readonly %0, ptr noundef %1, ptr nocapture noundef readonly %2, i32 %3) #0 {
  %5 = load ptr, ptr %2, align 8
  %6 = getelementptr inbounds i8, ptr %5, i64 40
  %7 = load i32, ptr %6, align 8
  %8 = tail call i32 @_cmsWriteUInt32Number(ptr noundef %1, i32 noundef %7) #13
  %.not = icmp eq i32 %8, 0
  br i1 %.not, label %44, label %9

9:                                                ; preds = %4
  %10 = load ptr, ptr %2, align 8
  %11 = getelementptr inbounds i8, ptr %10, i64 40
  %12 = load i32, ptr %11, align 8
  %13 = getelementptr inbounds i8, ptr %10, i64 48
  %14 = load ptr, ptr %13, align 8
  %15 = tail call i32 @_cmsWriteUInt16Array(ptr noundef %1, i32 noundef %12, ptr noundef %14) #13
  %.not25 = icmp eq i32 %15, 0
  br i1 %.not25, label %44, label %16

16:                                               ; preds = %9
  %17 = getelementptr inbounds i8, ptr %2, i64 8
  %18 = load ptr, ptr %17, align 8
  %19 = getelementptr inbounds i8, ptr %18, i64 40
  %20 = load i32, ptr %19, align 8
  %21 = tail call i32 @_cmsWriteUInt32Number(ptr noundef %1, i32 noundef %20) #13
  %.not26 = icmp eq i32 %21, 0
  br i1 %.not26, label %44, label %22

22:                                               ; preds = %16
  %23 = load ptr, ptr %17, align 8
  %24 = getelementptr inbounds i8, ptr %23, i64 40
  %25 = load i32, ptr %24, align 8
  %26 = getelementptr inbounds i8, ptr %23, i64 48
  %27 = load ptr, ptr %26, align 8
  %28 = tail call i32 @_cmsWriteUInt16Array(ptr noundef %1, i32 noundef %25, ptr noundef %27) #13
  %.not27 = icmp eq i32 %28, 0
  br i1 %.not27, label %44, label %29

29:                                               ; preds = %22
  %30 = getelementptr inbounds i8, ptr %2, i64 16
  %31 = load ptr, ptr %30, align 8
  %32 = tail call i32 @cmsMLUgetASCII(ptr noundef %31, ptr noundef nonnull @.str, ptr noundef nonnull @.str, ptr noundef null, i32 noundef 0) #13
  %33 = getelementptr inbounds i8, ptr %0, i64 40
  %34 = load ptr, ptr %33, align 8
  %35 = tail call ptr @_cmsMalloc(ptr noundef %34, i32 noundef %32) #13
  %36 = load ptr, ptr %30, align 8
  %37 = tail call i32 @cmsMLUgetASCII(ptr noundef %36, ptr noundef nonnull @.str, ptr noundef nonnull @.str, ptr noundef %35, i32 noundef %32) #13
  %.not28 = icmp eq i32 %37, %32
  br i1 %.not28, label %38, label %44

38:                                               ; preds = %29
  %39 = getelementptr inbounds i8, ptr %1, i64 312
  %40 = load ptr, ptr %39, align 8
  %41 = tail call i32 %40(ptr noundef %1, i32 noundef %32, ptr noundef %35) #13
  %.not29 = icmp eq i32 %41, 0
  br i1 %.not29, label %44, label %42

42:                                               ; preds = %38
  %43 = load ptr, ptr %33, align 8
  tail call void @_cmsFree(ptr noundef %43, ptr noundef %35) #13
  br label %44

44:                                               ; preds = %38, %29, %22, %16, %9, %4, %42
  %.0 = phi i32 [ 1, %42 ], [ 0, %4 ], [ 0, %9 ], [ 0, %16 ], [ 0, %22 ], [ 0, %29 ], [ 0, %38 ]
  ret i32 %.0
}